; Function Attrs: mustprogress uwtable
define noundef double @_ZNK8QuantLib15BlackVolSurface10atmVolImplEd(ptr noundef nonnull align 8 dereferenceable(68) %this, double noundef %t) unnamed_addr #6 align 2 personality ptr @__gxx_personality_v0 {
entry:
  %ref.tmp = alloca %"class.boost::shared_ptr.20", align 8
  call void @llvm.lifetime.start.p0(i64 16, ptr nonnull %ref.tmp) #20
  %vtable = load ptr, ptr %this, align 8, !tbaa !29
  %vfn = getelementptr inbounds i8, ptr %vtable, i64 120
  %0 = load ptr, ptr %vfn, align 8
  call void %0(ptr dead_on_unwind nonnull writable sret(%"class.boost::shared_ptr.20") align 8 %ref.tmp, ptr noundef nonnull align 8 dereferenceable(68) %this, double noundef %t)
  %1 = load ptr, ptr %ref.tmp, align 8, !tbaa !31
  %cmp.not.i = icmp eq ptr %1, null
  br i1 %cmp.not.i, label %cond.false.i, label %invoke.cont2, !prof !33

cond.false.i:                                     ; preds = %entry
  invoke void @_ZN5boost16assertion_failedEPKcS1_S1_l(ptr noundef nonnull @.str.7, ptr noundef nonnull @__PRETTY_FUNCTION__._ZNK5boost10shared_ptrIN8QuantLib12SmileSectionEEptEv, ptr noundef nonnull @.str.8, i64 noundef 784)
          to label %invoke.cont unwind label %lpad

invoke.cont:                                      ; preds = %cond.false.i
  %.pre.i = load ptr, ptr %ref.tmp, align 8, !tbaa !31
  %cmp.not.i2 = icmp eq ptr %.pre.i, null
  br i1 %cmp.not.i2, label %cond.false.i3, label %invoke.cont2, !prof !34

cond.false.i3:                                    ; preds = %invoke.cont
  invoke void @_ZN5boost16assertion_failedEPKcS1_S1_l(ptr noundef nonnull @.str.7, ptr noundef nonnull @__PRETTY_FUNCTION__._ZNK5boost10shared_ptrIN8QuantLib12SmileSectionEEptEv, ptr noundef nonnull @.str.8, i64 noundef 784)
          to label %.noexc5 unwind label %lpad

.noexc5:                                          ; preds = %cond.false.i3
  %.pre.i4 = load ptr, ptr %ref.tmp, align 8, !tbaa !31
  br label %invoke.cont2

invoke.cont2:                                     ; preds = %entry, %.noexc5, %invoke.cont
  %2 = phi ptr [ %.pre.i, %invoke.cont ], [ null, %.noexc5 ], [ %1, %entry ]
  %3 = phi ptr [ %.pre.i, %invoke.cont ], [ %.pre.i4, %.noexc5 ], [ %1, %entry ]
  %vtable4 = load ptr, ptr %3, align 8, !tbaa !29
  %vfn5 = getelementptr inbounds i8, ptr %vtable4, i64 40
  %4 = load ptr, ptr %vfn5, align 8
  %call7 = invoke noundef double %4(ptr noundef nonnull align 8 dereferenceable(72) %3)
          to label %invoke.cont6 unwind label %lpad

invoke.cont6:                                     ; preds = %invoke.cont2
  %vtable.i = load ptr, ptr %2, align 8, !tbaa !29
  %vfn.i = getelementptr inbounds i8, ptr %vtable.i, i64 144
  %5 = load ptr, ptr %vfn.i, align 8
  %call.i7 = invoke noundef double %5(ptr noundef nonnull align 8 dereferenceable(72) %2, double noundef %call7)
          to label %invoke.cont8 unwind label %lpad

invoke.cont8:                                     ; preds = %invoke.cont6
  %pn.i = getelementptr inbounds nuw i8, ptr %ref.tmp, i64 8
  %6 = load ptr, ptr %pn.i, align 8, !tbaa !9
  %cmp.not.i.i = icmp eq ptr %6, null
  br i1 %cmp.not.i.i, label %_ZN5boost10shared_ptrIN8QuantLib12SmileSectionEED2Ev.exit, label %if.then.i.i

if.then.i.i:                                      ; preds = %invoke.cont8
  %use_count_.i.i.i = getelementptr inbounds nuw i8, ptr %6, i64 8
  %7 = atomicrmw sub ptr %use_count_.i.i.i, i32 1 acq_rel, align 4
  %cmp.i.i.i = icmp eq i32 %7, 1
  br i1 %cmp.i.i.i, label %if.then.i.i.i, label %_ZN5boost10shared_ptrIN8QuantLib12SmileSectionEED2Ev.exit

if.then.i.i.i:                                    ; preds = %if.then.i.i
  %vtable.i.i.i = load ptr, ptr %6, align 8, !tbaa !29
  %vfn.i.i.i = getelementptr inbounds i8, ptr %vtable.i.i.i, i64 16
  %8 = load ptr, ptr %vfn.i.i.i, align 8
  invoke void %8(ptr noundef nonnull align 8 dereferenceable(16) %6)
          to label %.noexc.i.i unwind label %terminate.lpad.i.i

.noexc.i.i:                                       ; preds = %if.then.i.i.i
  %weak_count_.i.i.i.i = getelementptr inbounds nuw i8, ptr %6, i64 12
  %9 = atomicrmw sub ptr %weak_count_.i.i.i.i, i32 1 acq_rel, align 4
  %cmp.i.i.i.i = icmp eq i32 %9, 1
  br i1 %cmp.i.i.i.i, label %if.then.i.i.i.i, label %_ZN5boost10shared_ptrIN8QuantLib12SmileSectionEED2Ev.exit

if.then.i.i.i.i:                                  ; preds = %.noexc.i.i
  %vtable.i.i.i.i = load ptr, ptr %6, align 8, !tbaa !29
  %vfn.i.i.i.i = getelementptr inbounds i8, ptr %vtable.i.i.i.i, i64 24
  %10 = load ptr, ptr %vfn.i.i.i.i, align 8
  invoke void %10(ptr noundef nonnull align 8 dereferenceable(16) %6)
          to label %_ZN5boost10shared_ptrIN8QuantLib12SmileSectionEED2Ev.exit unwind label %terminate.lpad.i.i

terminate.lpad.i.i:                               ; preds = %if.then.i.i.i.i, %if.then.i.i.i
  %11 = landingpad { ptr, i32 }
          catch ptr null
  %12 = extractvalue { ptr, i32 } %11, 0
  call void @__clang_call_terminate(ptr %12) #21
  unreachable

_ZN5boost10shared_ptrIN8QuantLib12SmileSectionEED2Ev.exit: ; preds = %invoke.cont8, %if.then.i.i, %.noexc.i.i, %if.then.i.i.i.i
  call void @llvm.lifetime.end.p0(i64 16, ptr nonnull %ref.tmp) #20
  ret double %call.i7

lpad:                                             ; preds = %invoke.cont6, %cond.false.i3, %cond.false.i, %invoke.cont2
  %13 = landingpad { ptr, i32 }
          cleanup
  call void @_ZN5boost10shared_ptrIN8QuantLib12SmileSectionEED2Ev(ptr noundef nonnull align 8 dereferenceable(16) %ref.tmp) #20
  call void @llvm.lifetime.end.p0(i64 16, ptr nonnull %ref.tmp) #20
  resume { ptr, i32 } %13
}